ARM GAS  C:\Users\Castro\AppData\Local\Temp\cc4j37Mm.s 			page 1


   1              		.syntax unified
   2              		.cpu cortex-m0
   3              		.fpu softvfp
   4              		.eabi_attribute 20, 1
   5              		.eabi_attribute 21, 1
   6              		.eabi_attribute 23, 3
   7              		.eabi_attribute 24, 1
   8              		.eabi_attribute 25, 1
   9              		.eabi_attribute 26, 1
  10              		.eabi_attribute 30, 1
  11              		.eabi_attribute 34, 0
  12              		.eabi_attribute 18, 4
  13              		.thumb
  14              		.syntax unified
  15              		.file	"Pin_3.c"
  16              		.text
  17              	.Ltext0:
  18              		.cfi_sections	.debug_frame
  19              		.section	.text.Pin_3_SetDriveMode,"ax",%progbits
  20              		.align	2
  21              		.global	Pin_3_SetDriveMode
  22              		.code	16
  23              		.thumb_func
  24              		.type	Pin_3_SetDriveMode, %function
  25              	Pin_3_SetDriveMode:
  26              	.LFB0:
  27              		.file 1 "Generated_Source\\PSoC4\\Pin_3.c"
   1:Generated_Source\PSoC4/Pin_3.c **** /*******************************************************************************
   2:Generated_Source\PSoC4/Pin_3.c **** * File Name: Pin_3.c  
   3:Generated_Source\PSoC4/Pin_3.c **** * Version 2.20
   4:Generated_Source\PSoC4/Pin_3.c **** *
   5:Generated_Source\PSoC4/Pin_3.c **** * Description:
   6:Generated_Source\PSoC4/Pin_3.c **** *  This file contains API to enable firmware control of a Pins component.
   7:Generated_Source\PSoC4/Pin_3.c **** *
   8:Generated_Source\PSoC4/Pin_3.c **** ********************************************************************************
   9:Generated_Source\PSoC4/Pin_3.c **** * Copyright 2008-2015, Cypress Semiconductor Corporation.  All rights reserved.
  10:Generated_Source\PSoC4/Pin_3.c **** * You may use this file only in accordance with the license, terms, conditions, 
  11:Generated_Source\PSoC4/Pin_3.c **** * disclaimers, and limitations in the end user license agreement accompanying 
  12:Generated_Source\PSoC4/Pin_3.c **** * the software package with which this file was provided.
  13:Generated_Source\PSoC4/Pin_3.c **** *******************************************************************************/
  14:Generated_Source\PSoC4/Pin_3.c **** 
  15:Generated_Source\PSoC4/Pin_3.c **** #include "cytypes.h"
  16:Generated_Source\PSoC4/Pin_3.c **** #include "Pin_3.h"
  17:Generated_Source\PSoC4/Pin_3.c **** 
  18:Generated_Source\PSoC4/Pin_3.c **** 
  19:Generated_Source\PSoC4/Pin_3.c **** #if defined(Pin_3__PC)
  20:Generated_Source\PSoC4/Pin_3.c ****     #define Pin_3_SetP4PinDriveMode(shift, mode)  \
  21:Generated_Source\PSoC4/Pin_3.c ****     do { \
  22:Generated_Source\PSoC4/Pin_3.c ****         Pin_3_PC =   (Pin_3_PC & \
  23:Generated_Source\PSoC4/Pin_3.c ****                                 (uint32)(~(uint32)(Pin_3_DRIVE_MODE_IND_MASK << \
  24:Generated_Source\PSoC4/Pin_3.c ****                                 (Pin_3_DRIVE_MODE_BITS * (shift))))) | \
  25:Generated_Source\PSoC4/Pin_3.c ****                                 (uint32)((uint32)(mode) << \
  26:Generated_Source\PSoC4/Pin_3.c ****                                 (Pin_3_DRIVE_MODE_BITS * (shift))); \
  27:Generated_Source\PSoC4/Pin_3.c ****     } while (0)
  28:Generated_Source\PSoC4/Pin_3.c **** #else
  29:Generated_Source\PSoC4/Pin_3.c ****     #if (CY_PSOC4_4200L)
  30:Generated_Source\PSoC4/Pin_3.c ****         #define Pin_3_SetP4PinDriveMode(shift, mode)  \
ARM GAS  C:\Users\Castro\AppData\Local\Temp\cc4j37Mm.s 			page 2


  31:Generated_Source\PSoC4/Pin_3.c ****         do { \
  32:Generated_Source\PSoC4/Pin_3.c ****             Pin_3_USBIO_CTRL_REG = (Pin_3_USBIO_CTRL_REG & \
  33:Generated_Source\PSoC4/Pin_3.c ****                                     (uint32)(~(uint32)(Pin_3_DRIVE_MODE_IND_MASK << \
  34:Generated_Source\PSoC4/Pin_3.c ****                                     (Pin_3_DRIVE_MODE_BITS * (shift))))) | \
  35:Generated_Source\PSoC4/Pin_3.c ****                                     (uint32)((uint32)(mode) << \
  36:Generated_Source\PSoC4/Pin_3.c ****                                     (Pin_3_DRIVE_MODE_BITS * (shift))); \
  37:Generated_Source\PSoC4/Pin_3.c ****         } while (0)
  38:Generated_Source\PSoC4/Pin_3.c ****     #endif
  39:Generated_Source\PSoC4/Pin_3.c **** #endif
  40:Generated_Source\PSoC4/Pin_3.c ****   
  41:Generated_Source\PSoC4/Pin_3.c **** 
  42:Generated_Source\PSoC4/Pin_3.c **** #if defined(Pin_3__PC) || (CY_PSOC4_4200L) 
  43:Generated_Source\PSoC4/Pin_3.c ****     /*******************************************************************************
  44:Generated_Source\PSoC4/Pin_3.c ****     * Function Name: Pin_3_SetDriveMode
  45:Generated_Source\PSoC4/Pin_3.c ****     ****************************************************************************//**
  46:Generated_Source\PSoC4/Pin_3.c ****     *
  47:Generated_Source\PSoC4/Pin_3.c ****     * \brief Sets the drive mode for each of the Pins component's pins.
  48:Generated_Source\PSoC4/Pin_3.c ****     * 
  49:Generated_Source\PSoC4/Pin_3.c ****     * <b>Note</b> This affects all pins in the Pins component instance. Use the
  50:Generated_Source\PSoC4/Pin_3.c ****     * Per-Pin APIs if you wish to control individual pin's drive modes.
  51:Generated_Source\PSoC4/Pin_3.c ****     *
  52:Generated_Source\PSoC4/Pin_3.c ****     * <b>Note</b> USBIOs have limited drive functionality. Refer to the Drive Mode
  53:Generated_Source\PSoC4/Pin_3.c ****     * parameter for more information.
  54:Generated_Source\PSoC4/Pin_3.c ****     *
  55:Generated_Source\PSoC4/Pin_3.c ****     * \param mode
  56:Generated_Source\PSoC4/Pin_3.c ****     *  Mode for the selected signals. Valid options are documented in 
  57:Generated_Source\PSoC4/Pin_3.c ****     *  \ref driveMode.
  58:Generated_Source\PSoC4/Pin_3.c ****     *
  59:Generated_Source\PSoC4/Pin_3.c ****     * \return
  60:Generated_Source\PSoC4/Pin_3.c ****     *  None
  61:Generated_Source\PSoC4/Pin_3.c ****     *
  62:Generated_Source\PSoC4/Pin_3.c ****     * \sideeffect
  63:Generated_Source\PSoC4/Pin_3.c ****     *  If you use read-modify-write operations that are not atomic, the ISR can
  64:Generated_Source\PSoC4/Pin_3.c ****     *  cause corruption of this function. An ISR that interrupts this function 
  65:Generated_Source\PSoC4/Pin_3.c ****     *  and performs writes to the Pins component Drive Mode registers can cause 
  66:Generated_Source\PSoC4/Pin_3.c ****     *  corrupted port data. To avoid this issue, you should either use the Per-Pin
  67:Generated_Source\PSoC4/Pin_3.c ****     *  APIs (primary method) or disable interrupts around this function.
  68:Generated_Source\PSoC4/Pin_3.c ****     *
  69:Generated_Source\PSoC4/Pin_3.c ****     * \funcusage
  70:Generated_Source\PSoC4/Pin_3.c ****     *  \snippet Pin_3_SUT.c usage_Pin_3_SetDriveMode
  71:Generated_Source\PSoC4/Pin_3.c ****     *******************************************************************************/
  72:Generated_Source\PSoC4/Pin_3.c ****     void Pin_3_SetDriveMode(uint8 mode)
  73:Generated_Source\PSoC4/Pin_3.c ****     {
  28              		.loc 1 73 0
  29              		.cfi_startproc
  30              		@ args = 0, pretend = 0, frame = 0
  31              		@ frame_needed = 0, uses_anonymous_args = 0
  32              		@ link register save eliminated.
  33              	.LVL0:
  74:Generated_Source\PSoC4/Pin_3.c **** 		Pin_3_SetP4PinDriveMode(Pin_3__0__SHIFT, mode);
  34              		.loc 1 74 0
  35 0000 064B     		ldr	r3, .L2
  36 0002 1968     		ldr	r1, [r3]
  37 0004 064A     		ldr	r2, .L2+4
  38 0006 0A40     		ands	r2, r1
  39 0008 8104     		lsls	r1, r0, #18
  40 000a 0A43     		orrs	r2, r1
ARM GAS  C:\Users\Castro\AppData\Local\Temp\cc4j37Mm.s 			page 3


  41 000c 1A60     		str	r2, [r3]
  75:Generated_Source\PSoC4/Pin_3.c **** 		Pin_3_SetP4PinDriveMode(Pin_3__1__SHIFT, mode);
  42              		.loc 1 75 0
  43 000e 1968     		ldr	r1, [r3]
  44 0010 044A     		ldr	r2, .L2+8
  45 0012 0A40     		ands	r2, r1
  46 0014 4005     		lsls	r0, r0, #21
  47              	.LVL1:
  48 0016 1043     		orrs	r0, r2
  49 0018 1860     		str	r0, [r3]
  76:Generated_Source\PSoC4/Pin_3.c ****     }
  50              		.loc 1 76 0
  51              		@ sp needed
  52 001a 7047     		bx	lr
  53              	.L3:
  54              		.align	2
  55              	.L2:
  56 001c 08000440 		.word	1074003976
  57 0020 FFFFE3FF 		.word	-1835009
  58 0024 FFFF1FFF 		.word	-14680065
  59              		.cfi_endproc
  60              	.LFE0:
  61              		.size	Pin_3_SetDriveMode, .-Pin_3_SetDriveMode
  62              		.section	.text.Pin_3_Write,"ax",%progbits
  63              		.align	2
  64              		.global	Pin_3_Write
  65              		.code	16
  66              		.thumb_func
  67              		.type	Pin_3_Write, %function
  68              	Pin_3_Write:
  69              	.LFB1:
  77:Generated_Source\PSoC4/Pin_3.c **** #endif
  78:Generated_Source\PSoC4/Pin_3.c **** 
  79:Generated_Source\PSoC4/Pin_3.c **** 
  80:Generated_Source\PSoC4/Pin_3.c **** /*******************************************************************************
  81:Generated_Source\PSoC4/Pin_3.c **** * Function Name: Pin_3_Write
  82:Generated_Source\PSoC4/Pin_3.c **** ****************************************************************************//**
  83:Generated_Source\PSoC4/Pin_3.c **** *
  84:Generated_Source\PSoC4/Pin_3.c **** * \brief Writes the value to the physical port (data output register), masking
  85:Generated_Source\PSoC4/Pin_3.c **** *  and shifting the bits appropriately. 
  86:Generated_Source\PSoC4/Pin_3.c **** *
  87:Generated_Source\PSoC4/Pin_3.c **** * The data output register controls the signal applied to the physical pin in 
  88:Generated_Source\PSoC4/Pin_3.c **** * conjunction with the drive mode parameter. This function avoids changing 
  89:Generated_Source\PSoC4/Pin_3.c **** * other bits in the port by using the appropriate method (read-modify-write or
  90:Generated_Source\PSoC4/Pin_3.c **** * bit banding).
  91:Generated_Source\PSoC4/Pin_3.c **** *
  92:Generated_Source\PSoC4/Pin_3.c **** * <b>Note</b> This function should not be used on a hardware digital output pin 
  93:Generated_Source\PSoC4/Pin_3.c **** * as it is driven by the hardware signal attached to it.
  94:Generated_Source\PSoC4/Pin_3.c **** *
  95:Generated_Source\PSoC4/Pin_3.c **** * \param value
  96:Generated_Source\PSoC4/Pin_3.c **** *  Value to write to the component instance.
  97:Generated_Source\PSoC4/Pin_3.c **** *
  98:Generated_Source\PSoC4/Pin_3.c **** * \return 
  99:Generated_Source\PSoC4/Pin_3.c **** *  None 
 100:Generated_Source\PSoC4/Pin_3.c **** *
 101:Generated_Source\PSoC4/Pin_3.c **** * \sideeffect
 102:Generated_Source\PSoC4/Pin_3.c **** *  If you use read-modify-write operations that are not atomic; the Interrupt 
ARM GAS  C:\Users\Castro\AppData\Local\Temp\cc4j37Mm.s 			page 4


 103:Generated_Source\PSoC4/Pin_3.c **** *  Service Routines (ISR) can cause corruption of this function. An ISR that 
 104:Generated_Source\PSoC4/Pin_3.c **** *  interrupts this function and performs writes to the Pins component data 
 105:Generated_Source\PSoC4/Pin_3.c **** *  register can cause corrupted port data. To avoid this issue, you should 
 106:Generated_Source\PSoC4/Pin_3.c **** *  either use the Per-Pin APIs (primary method) or disable interrupts around 
 107:Generated_Source\PSoC4/Pin_3.c **** *  this function.
 108:Generated_Source\PSoC4/Pin_3.c **** *
 109:Generated_Source\PSoC4/Pin_3.c **** * \funcusage
 110:Generated_Source\PSoC4/Pin_3.c **** *  \snippet Pin_3_SUT.c usage_Pin_3_Write
 111:Generated_Source\PSoC4/Pin_3.c **** *******************************************************************************/
 112:Generated_Source\PSoC4/Pin_3.c **** void Pin_3_Write(uint8 value)
 113:Generated_Source\PSoC4/Pin_3.c **** {
  70              		.loc 1 113 0
  71              		.cfi_startproc
  72              		@ args = 0, pretend = 0, frame = 0
  73              		@ frame_needed = 0, uses_anonymous_args = 0
  74              		@ link register save eliminated.
  75              	.LVL2:
 114:Generated_Source\PSoC4/Pin_3.c ****     uint8 drVal = (uint8)(Pin_3_DR & (uint8)(~Pin_3_MASK));
  76              		.loc 1 114 0
  77 0000 0449     		ldr	r1, .L5
  78 0002 0A68     		ldr	r2, [r1]
  79 0004 3F23     		movs	r3, #63
  80 0006 1A40     		ands	r2, r3
  81              	.LVL3:
 115:Generated_Source\PSoC4/Pin_3.c ****     drVal = (drVal | ((uint8)(value << Pin_3_SHIFT) & Pin_3_MASK));
  82              		.loc 1 115 0
  83 0008 8301     		lsls	r3, r0, #6
  84 000a D8B2     		uxtb	r0, r3
  85              	.LVL4:
  86 000c 1043     		orrs	r0, r2
  87              	.LVL5:
 116:Generated_Source\PSoC4/Pin_3.c ****     Pin_3_DR = (uint32)drVal;
  88              		.loc 1 116 0
  89 000e 0860     		str	r0, [r1]
 117:Generated_Source\PSoC4/Pin_3.c **** }
  90              		.loc 1 117 0
  91              		@ sp needed
  92 0010 7047     		bx	lr
  93              	.L6:
  94 0012 C046     		.align	2
  95              	.L5:
  96 0014 00000440 		.word	1074003968
  97              		.cfi_endproc
  98              	.LFE1:
  99              		.size	Pin_3_Write, .-Pin_3_Write
 100              		.section	.text.Pin_3_Read,"ax",%progbits
 101              		.align	2
 102              		.global	Pin_3_Read
 103              		.code	16
 104              		.thumb_func
 105              		.type	Pin_3_Read, %function
 106              	Pin_3_Read:
 107              	.LFB2:
 118:Generated_Source\PSoC4/Pin_3.c **** 
 119:Generated_Source\PSoC4/Pin_3.c **** 
 120:Generated_Source\PSoC4/Pin_3.c **** /*******************************************************************************
 121:Generated_Source\PSoC4/Pin_3.c **** * Function Name: Pin_3_Read
ARM GAS  C:\Users\Castro\AppData\Local\Temp\cc4j37Mm.s 			page 5


 122:Generated_Source\PSoC4/Pin_3.c **** ****************************************************************************//**
 123:Generated_Source\PSoC4/Pin_3.c **** *
 124:Generated_Source\PSoC4/Pin_3.c **** * \brief Reads the associated physical port (pin status register) and masks 
 125:Generated_Source\PSoC4/Pin_3.c **** *  the required bits according to the width and bit position of the component
 126:Generated_Source\PSoC4/Pin_3.c **** *  instance. 
 127:Generated_Source\PSoC4/Pin_3.c **** *
 128:Generated_Source\PSoC4/Pin_3.c **** * The pin's status register returns the current logic level present on the 
 129:Generated_Source\PSoC4/Pin_3.c **** * physical pin.
 130:Generated_Source\PSoC4/Pin_3.c **** *
 131:Generated_Source\PSoC4/Pin_3.c **** * \return 
 132:Generated_Source\PSoC4/Pin_3.c **** *  The current value for the pins in the component as a right justified number.
 133:Generated_Source\PSoC4/Pin_3.c **** *
 134:Generated_Source\PSoC4/Pin_3.c **** * \funcusage
 135:Generated_Source\PSoC4/Pin_3.c **** *  \snippet Pin_3_SUT.c usage_Pin_3_Read  
 136:Generated_Source\PSoC4/Pin_3.c **** *******************************************************************************/
 137:Generated_Source\PSoC4/Pin_3.c **** uint8 Pin_3_Read(void)
 138:Generated_Source\PSoC4/Pin_3.c **** {
 108              		.loc 1 138 0
 109              		.cfi_startproc
 110              		@ args = 0, pretend = 0, frame = 0
 111              		@ frame_needed = 0, uses_anonymous_args = 0
 112              		@ link register save eliminated.
 139:Generated_Source\PSoC4/Pin_3.c ****     return (uint8)((Pin_3_PS & Pin_3_MASK) >> Pin_3_SHIFT);
 113              		.loc 1 139 0
 114 0000 024B     		ldr	r3, .L8
 115 0002 1868     		ldr	r0, [r3]
 116 0004 8009     		lsrs	r0, r0, #6
 117 0006 0323     		movs	r3, #3
 118 0008 1840     		ands	r0, r3
 140:Generated_Source\PSoC4/Pin_3.c **** }
 119              		.loc 1 140 0
 120              		@ sp needed
 121 000a 7047     		bx	lr
 122              	.L9:
 123              		.align	2
 124              	.L8:
 125 000c 04000440 		.word	1074003972
 126              		.cfi_endproc
 127              	.LFE2:
 128              		.size	Pin_3_Read, .-Pin_3_Read
 129              		.section	.text.Pin_3_ReadDataReg,"ax",%progbits
 130              		.align	2
 131              		.global	Pin_3_ReadDataReg
 132              		.code	16
 133              		.thumb_func
 134              		.type	Pin_3_ReadDataReg, %function
 135              	Pin_3_ReadDataReg:
 136              	.LFB3:
 141:Generated_Source\PSoC4/Pin_3.c **** 
 142:Generated_Source\PSoC4/Pin_3.c **** 
 143:Generated_Source\PSoC4/Pin_3.c **** /*******************************************************************************
 144:Generated_Source\PSoC4/Pin_3.c **** * Function Name: Pin_3_ReadDataReg
 145:Generated_Source\PSoC4/Pin_3.c **** ****************************************************************************//**
 146:Generated_Source\PSoC4/Pin_3.c **** *
 147:Generated_Source\PSoC4/Pin_3.c **** * \brief Reads the associated physical port's data output register and masks 
 148:Generated_Source\PSoC4/Pin_3.c **** *  the correct bits according to the width and bit position of the component 
 149:Generated_Source\PSoC4/Pin_3.c **** *  instance. 
ARM GAS  C:\Users\Castro\AppData\Local\Temp\cc4j37Mm.s 			page 6


 150:Generated_Source\PSoC4/Pin_3.c **** *
 151:Generated_Source\PSoC4/Pin_3.c **** * The data output register controls the signal applied to the physical pin in 
 152:Generated_Source\PSoC4/Pin_3.c **** * conjunction with the drive mode parameter. This is not the same as the 
 153:Generated_Source\PSoC4/Pin_3.c **** * preferred Pin_3_Read() API because the 
 154:Generated_Source\PSoC4/Pin_3.c **** * Pin_3_ReadDataReg() reads the data register instead of the status 
 155:Generated_Source\PSoC4/Pin_3.c **** * register. For output pins this is a useful function to determine the value 
 156:Generated_Source\PSoC4/Pin_3.c **** * just written to the pin.
 157:Generated_Source\PSoC4/Pin_3.c **** *
 158:Generated_Source\PSoC4/Pin_3.c **** * \return 
 159:Generated_Source\PSoC4/Pin_3.c **** *  The current value of the data register masked and shifted into a right 
 160:Generated_Source\PSoC4/Pin_3.c **** *  justified number for the component instance.
 161:Generated_Source\PSoC4/Pin_3.c **** *
 162:Generated_Source\PSoC4/Pin_3.c **** * \funcusage
 163:Generated_Source\PSoC4/Pin_3.c **** *  \snippet Pin_3_SUT.c usage_Pin_3_ReadDataReg 
 164:Generated_Source\PSoC4/Pin_3.c **** *******************************************************************************/
 165:Generated_Source\PSoC4/Pin_3.c **** uint8 Pin_3_ReadDataReg(void)
 166:Generated_Source\PSoC4/Pin_3.c **** {
 137              		.loc 1 166 0
 138              		.cfi_startproc
 139              		@ args = 0, pretend = 0, frame = 0
 140              		@ frame_needed = 0, uses_anonymous_args = 0
 141              		@ link register save eliminated.
 167:Generated_Source\PSoC4/Pin_3.c ****     return (uint8)((Pin_3_DR & Pin_3_MASK) >> Pin_3_SHIFT);
 142              		.loc 1 167 0
 143 0000 024B     		ldr	r3, .L11
 144 0002 1868     		ldr	r0, [r3]
 145 0004 8009     		lsrs	r0, r0, #6
 146 0006 0323     		movs	r3, #3
 147 0008 1840     		ands	r0, r3
 168:Generated_Source\PSoC4/Pin_3.c **** }
 148              		.loc 1 168 0
 149              		@ sp needed
 150 000a 7047     		bx	lr
 151              	.L12:
 152              		.align	2
 153              	.L11:
 154 000c 00000440 		.word	1074003968
 155              		.cfi_endproc
 156              	.LFE3:
 157              		.size	Pin_3_ReadDataReg, .-Pin_3_ReadDataReg
 158              		.section	.text.Pin_3_SetInterruptMode,"ax",%progbits
 159              		.align	2
 160              		.global	Pin_3_SetInterruptMode
 161              		.code	16
 162              		.thumb_func
 163              		.type	Pin_3_SetInterruptMode, %function
 164              	Pin_3_SetInterruptMode:
 165              	.LFB4:
 169:Generated_Source\PSoC4/Pin_3.c **** 
 170:Generated_Source\PSoC4/Pin_3.c **** 
 171:Generated_Source\PSoC4/Pin_3.c **** /*******************************************************************************
 172:Generated_Source\PSoC4/Pin_3.c **** * Function Name: Pin_3_SetInterruptMode
 173:Generated_Source\PSoC4/Pin_3.c **** ****************************************************************************//**
 174:Generated_Source\PSoC4/Pin_3.c **** *
 175:Generated_Source\PSoC4/Pin_3.c **** * \brief Configures the interrupt mode for each of the Pins component's
 176:Generated_Source\PSoC4/Pin_3.c **** *  pins. Alternatively you may set the interrupt mode for all the pins
 177:Generated_Source\PSoC4/Pin_3.c **** *  specified in the Pins component.
ARM GAS  C:\Users\Castro\AppData\Local\Temp\cc4j37Mm.s 			page 7


 178:Generated_Source\PSoC4/Pin_3.c **** *
 179:Generated_Source\PSoC4/Pin_3.c **** *  <b>Note</b> The interrupt is port-wide and therefore any enabled pin
 180:Generated_Source\PSoC4/Pin_3.c **** *  interrupt may trigger it.
 181:Generated_Source\PSoC4/Pin_3.c **** *
 182:Generated_Source\PSoC4/Pin_3.c **** * \param position
 183:Generated_Source\PSoC4/Pin_3.c **** *  The pin position as listed in the Pins component. You may OR these to be 
 184:Generated_Source\PSoC4/Pin_3.c **** *  able to configure the interrupt mode of multiple pins within a Pins 
 185:Generated_Source\PSoC4/Pin_3.c **** *  component. Or you may use Pin_3_INTR_ALL to configure the
 186:Generated_Source\PSoC4/Pin_3.c **** *  interrupt mode of all the pins in the Pins component.       
 187:Generated_Source\PSoC4/Pin_3.c **** *  - Pin_3_0_INTR       (First pin in the list)
 188:Generated_Source\PSoC4/Pin_3.c **** *  - Pin_3_1_INTR       (Second pin in the list)
 189:Generated_Source\PSoC4/Pin_3.c **** *  - ...
 190:Generated_Source\PSoC4/Pin_3.c **** *  - Pin_3_INTR_ALL     (All pins in Pins component)
 191:Generated_Source\PSoC4/Pin_3.c **** *
 192:Generated_Source\PSoC4/Pin_3.c **** * \param mode
 193:Generated_Source\PSoC4/Pin_3.c **** *  Interrupt mode for the selected pins. Valid options are documented in
 194:Generated_Source\PSoC4/Pin_3.c **** *  \ref intrMode.
 195:Generated_Source\PSoC4/Pin_3.c **** *
 196:Generated_Source\PSoC4/Pin_3.c **** * \return 
 197:Generated_Source\PSoC4/Pin_3.c **** *  None
 198:Generated_Source\PSoC4/Pin_3.c **** *  
 199:Generated_Source\PSoC4/Pin_3.c **** * \sideeffect
 200:Generated_Source\PSoC4/Pin_3.c **** *  It is recommended that the interrupt be disabled before calling this 
 201:Generated_Source\PSoC4/Pin_3.c **** *  function to avoid unintended interrupt requests. Note that the interrupt
 202:Generated_Source\PSoC4/Pin_3.c **** *  type is port wide, and therefore will trigger for any enabled pin on the 
 203:Generated_Source\PSoC4/Pin_3.c **** *  port.
 204:Generated_Source\PSoC4/Pin_3.c **** *
 205:Generated_Source\PSoC4/Pin_3.c **** * \funcusage
 206:Generated_Source\PSoC4/Pin_3.c **** *  \snippet Pin_3_SUT.c usage_Pin_3_SetInterruptMode
 207:Generated_Source\PSoC4/Pin_3.c **** *******************************************************************************/
 208:Generated_Source\PSoC4/Pin_3.c **** void Pin_3_SetInterruptMode(uint16 position, uint16 mode)
 209:Generated_Source\PSoC4/Pin_3.c **** {
 166              		.loc 1 209 0
 167              		.cfi_startproc
 168              		@ args = 0, pretend = 0, frame = 0
 169              		@ frame_needed = 0, uses_anonymous_args = 0
 170              		@ link register save eliminated.
 171              	.LVL6:
 210:Generated_Source\PSoC4/Pin_3.c ****     uint32 intrCfg;
 211:Generated_Source\PSoC4/Pin_3.c ****     
 212:Generated_Source\PSoC4/Pin_3.c ****     intrCfg =  Pin_3_INTCFG & (uint32)(~(uint32)position);
 172              		.loc 1 212 0
 173 0000 034A     		ldr	r2, .L14
 174 0002 1368     		ldr	r3, [r2]
 175 0004 8343     		bics	r3, r0
 176              	.LVL7:
 213:Generated_Source\PSoC4/Pin_3.c ****     Pin_3_INTCFG = intrCfg | ((uint32)position & (uint32)mode);
 177              		.loc 1 213 0
 178 0006 0840     		ands	r0, r1
 179              	.LVL8:
 180 0008 1843     		orrs	r0, r3
 181 000a 1060     		str	r0, [r2]
 214:Generated_Source\PSoC4/Pin_3.c **** }
 182              		.loc 1 214 0
 183              		@ sp needed
 184 000c 7047     		bx	lr
 185              	.L15:
ARM GAS  C:\Users\Castro\AppData\Local\Temp\cc4j37Mm.s 			page 8


 186 000e C046     		.align	2
 187              	.L14:
 188 0010 0C000440 		.word	1074003980
 189              		.cfi_endproc
 190              	.LFE4:
 191              		.size	Pin_3_SetInterruptMode, .-Pin_3_SetInterruptMode
 192              		.section	.text.Pin_3_ClearInterrupt,"ax",%progbits
 193              		.align	2
 194              		.global	Pin_3_ClearInterrupt
 195              		.code	16
 196              		.thumb_func
 197              		.type	Pin_3_ClearInterrupt, %function
 198              	Pin_3_ClearInterrupt:
 199              	.LFB5:
 215:Generated_Source\PSoC4/Pin_3.c **** 
 216:Generated_Source\PSoC4/Pin_3.c **** 
 217:Generated_Source\PSoC4/Pin_3.c **** /*******************************************************************************
 218:Generated_Source\PSoC4/Pin_3.c **** * Function Name: Pin_3_ClearInterrupt
 219:Generated_Source\PSoC4/Pin_3.c **** ****************************************************************************//**
 220:Generated_Source\PSoC4/Pin_3.c **** *
 221:Generated_Source\PSoC4/Pin_3.c **** * \brief Clears any active interrupts attached with the component and returns 
 222:Generated_Source\PSoC4/Pin_3.c **** *  the value of the interrupt status register allowing determination of which
 223:Generated_Source\PSoC4/Pin_3.c **** *  pins generated an interrupt event.
 224:Generated_Source\PSoC4/Pin_3.c **** *
 225:Generated_Source\PSoC4/Pin_3.c **** * \return 
 226:Generated_Source\PSoC4/Pin_3.c **** *  The right-shifted current value of the interrupt status register. Each pin 
 227:Generated_Source\PSoC4/Pin_3.c **** *  has one bit set if it generated an interrupt event. For example, bit 0 is 
 228:Generated_Source\PSoC4/Pin_3.c **** *  for pin 0 and bit 1 is for pin 1 of the Pins component.
 229:Generated_Source\PSoC4/Pin_3.c **** *  
 230:Generated_Source\PSoC4/Pin_3.c **** * \sideeffect
 231:Generated_Source\PSoC4/Pin_3.c **** *  Clears all bits of the physical port's interrupt status register, not just
 232:Generated_Source\PSoC4/Pin_3.c **** *  those associated with the Pins component.
 233:Generated_Source\PSoC4/Pin_3.c **** *
 234:Generated_Source\PSoC4/Pin_3.c **** * \funcusage
 235:Generated_Source\PSoC4/Pin_3.c **** *  \snippet Pin_3_SUT.c usage_Pin_3_ClearInterrupt
 236:Generated_Source\PSoC4/Pin_3.c **** *******************************************************************************/
 237:Generated_Source\PSoC4/Pin_3.c **** uint8 Pin_3_ClearInterrupt(void)
 238:Generated_Source\PSoC4/Pin_3.c **** {
 200              		.loc 1 238 0
 201              		.cfi_startproc
 202              		@ args = 0, pretend = 0, frame = 0
 203              		@ frame_needed = 0, uses_anonymous_args = 0
 204              		@ link register save eliminated.
 239:Generated_Source\PSoC4/Pin_3.c **** 	uint8 maskedStatus = (uint8)(Pin_3_INTSTAT & Pin_3_MASK);
 205              		.loc 1 239 0
 206 0000 034B     		ldr	r3, .L17
 207 0002 1868     		ldr	r0, [r3]
 208 0004 C0B2     		uxtb	r0, r0
 209 0006 3F22     		movs	r2, #63
 210 0008 9043     		bics	r0, r2
 211              	.LVL9:
 240:Generated_Source\PSoC4/Pin_3.c **** 	Pin_3_INTSTAT = maskedStatus;
 212              		.loc 1 240 0
 213 000a 1860     		str	r0, [r3]
 241:Generated_Source\PSoC4/Pin_3.c ****     return maskedStatus >> Pin_3_SHIFT;
 214              		.loc 1 241 0
 215 000c 8009     		lsrs	r0, r0, #6
ARM GAS  C:\Users\Castro\AppData\Local\Temp\cc4j37Mm.s 			page 9


 216              	.LVL10:
 242:Generated_Source\PSoC4/Pin_3.c **** }
 217              		.loc 1 242 0
 218              		@ sp needed
 219 000e 7047     		bx	lr
 220              	.L18:
 221              		.align	2
 222              	.L17:
 223 0010 10000440 		.word	1074003984
 224              		.cfi_endproc
 225              	.LFE5:
 226              		.size	Pin_3_ClearInterrupt, .-Pin_3_ClearInterrupt
 227              		.text
 228              	.Letext0:
 229              		.file 2 "Generated_Source\\PSoC4\\cytypes.h"